Certificate:
    Data:
        Version: 3 (0x2)
        Serial Number: 1 (0x1)
    Signature Algorithm: sha256WithRSAEncryption
        Issuer: C=US, ST=Florida, L=Wilton Manors, O=Bluecate LLC, OU=Development, CN=www.bluecate.com/emailAddress=bluecate.llc@gmail.com
        Validity
            Not Before: Aug 24 23:08:17 2020 GMT
            Not After : Aug 24 23:08:17 2021 GMT
        Subject: C=US, ST=Florida, O=Bluecate LLC, OU=Development, CN=www.bluecate.com/emailAddress=bluecate.llc@gmail.com
        Subject Public Key Info:
            Public Key Algorithm: rsaEncryption
                Public-Key: (4096 bit)
                Modulus:
                    00:e9:e5:fc:c5:dc:71:17:41:57:55:cd:37:06:6d:
                    85:3c:fd:c9:96:ee:76:45:3f:e4:3b:c1:4f:44:eb:
                    d3:12:53:85:40:15:75:26:4d:60:88:5f:37:22:c8:
                    24:0c:1f:08:d1:80:0f:0b:35:db:92:cf:8b:17:1a:
                    17:6a:c0:f4:78:fa:62:35:69:d2:9c:0c:6c:24:43:
                    0f:98:79:81:21:84:f8:d2:71:9d:0e:c9:e2:75:20:
                    93:09:6a:1c:9b:df:cd:8c:f2:93:67:00:ff:9e:39:
                    f2:67:38:71:38:a2:7a:81:fd:bd:95:39:f1:eb:20:
                    83:7a:25:d6:45:c2:07:eb:06:aa:0e:3b:15:47:1f:
                    e8:0a:42:bc:41:39:70:b3:36:32:0f:21:0a:e8:6e:
                    c9:8d:91:62:a7:f4:d9:f8:51:ed:1f:b7:ef:9b:8e:
                    60:8b:69:29:8f:b7:f6:c3:7a:e9:7a:86:6c:f3:0a:
                    81:50:96:1c:e4:47:9a:22:86:74:86:c1:ca:81:e1:
                    7b:9d:31:ea:16:a2:06:05:64:8e:27:77:af:c6:6c:
                    a4:a4:32:e6:98:b5:f9:55:b2:7e:38:c9:fa:ef:18:
                    bd:05:8b:71:de:26:37:e4:b7:b2:f7:33:eb:2c:a8:
                    5e:42:60:9d:92:1e:ea:1b:d3:eb:c8:ca:3d:de:ca:
                    8f:3a:c0:d5:d7:1f:2d:67:08:f6:c8:1f:61:2b:ba:
                    f6:f3:bb:d8:24:58:32:e1:71:0d:29:85:16:2b:64:
                    0a:09:13:3b:92:2d:cb:84:05:89:bc:08:a9:86:1d:
                    08:57:7e:b7:9e:98:4d:1e:f8:e4:79:9d:2f:e6:79:
                    02:f8:ea:a5:9a:42:02:f0:ea:4e:b1:41:09:91:e7:
                    37:0c:a6:98:ca:5f:3f:d9:9b:4a:c9:b0:5c:d9:d9:
                    af:f2:4b:41:16:6b:da:f1:ad:b9:6f:a4:35:b0:64:
                    50:fc:64:92:1a:b8:09:42:d8:51:a1:d2:d8:1a:e7:
                    5d:de:e7:cc:b6:6c:8e:98:c8:ed:d7:1e:47:4c:03:
                    3a:4f:0f:b1:eb:53:8b:f6:04:24:68:f3:cf:59:db:
                    f5:ba:84:dc:17:bf:67:50:19:c2:7e:1b:7c:19:6a:
                    c3:a7:b0:7b:95:81:9d:10:81:5e:8d:94:d5:20:68:
                    1c:99:fa:d0:05:69:7a:44:a7:59:64:a2:5d:42:8b:
                    02:0a:c4:92:d6:f6:53:a4:11:d6:59:9c:90:9d:23:
                    2d:0b:e9:77:e1:a8:42:af:c6:52:c9:b1:2b:cc:15:
                    0f:3d:f2:27:05:59:09:3e:19:ce:1f:a6:e1:ae:d0:
                    00:6e:9d:99:86:b9:5c:ca:6a:d3:61:59:5c:42:a5:
                    db:db:a1
                Exponent: 65537 (0x10001)
        X509v3 extensions:
            X509v3 Basic Constraints: 
                CA:FALSE
            Netscape Comment: 
                OpenSSL Generated Certificate
            X509v3 Subject Key Identifier: 
                FA:73:60:20:0A:45:82:E0:81:70:F6:D3:B6:0F:79:29:32:6E:1A:BA
            X509v3 Authority Key Identifier: 
                keyid:25:20:FB:8C:C1:C4:6E:74:52:31:31:6C:F2:65:66:C0:A0:F5:90:F9

    Signature Algorithm: sha256WithRSAEncryption
         72:45:f9:1d:a1:22:f8:5f:0c:b8:b5:9f:62:fb:b2:76:e2:09:
         55:db:4d:8b:6a:71:ef:e0:75:29:4f:b9:73:e5:1a:bd:b4:71:
         6c:38:56:9d:9d:99:e5:95:92:d6:ca:2d:fe:47:7a:d8:04:18:
         59:16:0e:95:16:ca:89:96:39:c4:14:28:7a:d7:15:b1:65:37:
         19:cb:73:c8:45:d4:01:e4:ca:ff:62:e9:46:21:29:40:ab:57:
         03:0f:ab:23:81:30:53:ab:6e:df:1d:58:d5:7f:a3:50:3b:13:
         2a:1d:1e:7a:da:40:0f:7d:c2:ba:dc:1c:9c:00:80:09:17:4d:
         b0:f2:ad:42:7b:ee:18:03:60:50:27:a1:d1:d8:20:e8:7a:41:
         51:14:04:92:33:f4:4a:b6:f0:72:96:25:1f:bd:04:48:4b:e4:
         52:5d:32:78:68:e1:33:55:a7:ab:11:7e:ee:2a:61:c2:21:c9:
         a4:7f:7d:40:62:a0:aa:dc:39:92:aa:8e:f2:93:df:68:8e:f5:
         f1:55:df:7a:7e:00:53:77:c9:da:21:8c:e9:c3:56:e3:fe:1d:
         93:99:ef:00:40:7b:bb:e3:a3:1d:3a:0c:bc:41:5c:fc:b3:aa:
         6f:4b:91:9e:94:3d:ac:60:ef:aa:af:fd:18:ef:b5:a3:fe:01:
         a9:47:ed:a8:75:cb:81:21:35:9a:70:2c:bd:61:2d:70:e7:74:
         45:dc:bc:c2:e8:1a:b2:6f:1c:80:8e:0b:b4:bd:be:4d:e7:85:
         d7:bd:ab:7d:69:45:0a:38:70:92:9f:e7:7a:84:38:fb:7c:47:
         6b:c9:93:46:d4:0b:cf:b9:a1:64:92:34:73:90:51:c6:5c:75:
         8d:66:93:91:4c:45:74:5b:d0:a7:b0:43:69:da:64:68:34:69:
         74:31:a2:5e:7f:f0:39:2e:2c:c2:2b:5c:d7:04:74:a7:af:52:
         73:0e:db:ea:17:4c:8f:c6:30:12:8a:8f:d4:79:1f:6a:02:18:
         7d:f0:79:22:92:96:6b:57:ea:7a:db:ac:b8:be:da:74:ac:fe:
         19:8b:60:c8:d8:fe:0d:54:0f:47:82:18:23:6f:42:a6:c5:08:
         f8:2e:5f:03:bf:2c:36:35:51:2d:da:a0:f6:de:d9:6d:ab:20:
         38:1d:d7:1b:58:ec:3a:66:4d:81:ec:08:9f:d8:1f:e5:43:82:
         69:ac:7c:b8:e5:dc:7a:be:cb:52:22:08:10:ae:3b:08:50:3f:
         9c:c5:9a:11:8d:94:ed:44:d7:86:da:6f:d6:3d:b6:c5:f9:fc:
         2c:ca:b5:c6:3f:bc:e6:b4:22:a9:f8:af:b7:72:28:ca:ac:a2:
         ab:8a:89:c3:b1:4a:67:bf
-----BEGIN CERTIFICATE-----
MIIGLDCCBBSgAwIBAgIBATANBgkqhkiG9w0BAQsFADCBpjELMAkGA1UEBhMCVVMx
EDAOBgNVBAgMB0Zsb3JpZGExFjAUBgNVBAcMDVdpbHRvbiBNYW5vcnMxFTATBgNV
BAoMDEJsdWVjYXRlIExMQzEUMBIGA1UECwwLRGV2ZWxvcG1lbnQxGTAXBgNVBAMM
EHd3dy5ibHVlY2F0ZS5jb20xJTAjBgkqhkiG9w0BCQEWFmJsdWVjYXRlLmxsY0Bn
bWFpbC5jb20wHhcNMjAwODI0MjMwODE3WhcNMjEwODI0MjMwODE3WjCBjjELMAkG
A1UEBhMCVVMxEDAOBgNVBAgMB0Zsb3JpZGExFTATBgNVBAoMDEJsdWVjYXRlIExM
QzEUMBIGA1UECwwLRGV2ZWxvcG1lbnQxGTAXBgNVBAMMEHd3dy5ibHVlY2F0ZS5j
b20xJTAjBgkqhkiG9w0BCQEWFmJsdWVjYXRlLmxsY0BnbWFpbC5jb20wggIiMA0G
CSqGSIb3DQEBAQUAA4ICDwAwggIKAoICAQDp5fzF3HEXQVdVzTcGbYU8/cmW7nZF
P+Q7wU9E69MSU4VAFXUmTWCIXzciyCQMHwjRgA8LNduSz4sXGhdqwPR4+mI1adKc
DGwkQw+YeYEhhPjScZ0OyeJ1IJMJahyb382M8pNnAP+eOfJnOHE4onqB/b2VOfHr
IIN6JdZFwgfrBqoOOxVHH+gKQrxBOXCzNjIPIQrobsmNkWKn9Nn4Ue0ft++bjmCL
aSmPt/bDeul6hmzzCoFQlhzkR5oihnSGwcqB4XudMeoWogYFZI4nd6/GbKSkMuaY
tflVsn44yfrvGL0Fi3HeJjfkt7L3M+ssqF5CYJ2SHuob0+vIyj3eyo86wNXXHy1n
CPbIH2Eruvbzu9gkWDLhcQ0phRYrZAoJEzuSLcuEBYm8CKmGHQhXfreemE0e+OR5
nS/meQL46qWaQgLw6k6xQQmR5zcMppjKXz/Zm0rJsFzZ2a/yS0EWa9rxrblvpDWw
ZFD8ZJIauAlC2FGh0tga513e58y2bI6YyO3XHkdMAzpPD7HrU4v2BCRo889Z2/W6
hNwXv2dQGcJ+G3wZasOnsHuVgZ0QgV6NlNUgaByZ+tAFaXpEp1lkol1CiwIKxJLW
9lOkEdZZnJCdIy0L6XfhqEKvxlLJsSvMFQ898icFWQk+Gc4fpuGu0ABunZmGuVzK
atNhWVxCpdvboQIDAQABo3sweTAJBgNVHRMEAjAAMCwGCWCGSAGG+EIBDQQfFh1P
cGVuU1NMIEdlbmVyYXRlZCBDZXJ0aWZpY2F0ZTAdBgNVHQ4EFgQU+nNgIApFguCB
cPbTtg95KTJuGrowHwYDVR0jBBgwFoAUJSD7jMHEbnRSMTFs8mVmwKD1kPkwDQYJ
KoZIhvcNAQELBQADggIBAHJF+R2hIvhfDLi1n2L7snbiCVXbTYtqce/gdSlPuXPl
Gr20cWw4Vp2dmeWVktbKLf5HetgEGFkWDpUWyomWOcQUKHrXFbFlNxnLc8hF1AHk
yv9i6UYhKUCrVwMPqyOBMFOrbt8dWNV/o1A7EyodHnraQA99wrrcHJwAgAkXTbDy
rUJ77hgDYFAnodHYIOh6QVEUBJIz9Eq28HKWJR+9BEhL5FJdMnho4TNVp6sRfu4q
YcIhyaR/fUBioKrcOZKqjvKT32iO9fFV33p+AFN3ydohjOnDVuP+HZOZ7wBAe7vj
ox06DLxBXPyzqm9LkZ6UPaxg76qv/RjvtaP+AalH7ah1y4EhNZpwLL1hLXDndEXc
vMLoGrJvHICOC7S9vk3nhde9q31pRQo4cJKf53qEOPt8R2vJk0bUC8+5oWSSNHOQ
UcZcdY1mk5FMRXRb0KewQ2naZGg0aXQxol5/8DkuLMIrXNcEdKevUnMO2+oXTI/G
MBKKj9R5H2oCGH3weSKSlmtX6nrbrLi+2nSs/hmLYMjY/g1UD0eCGCNvQqbFCPgu
XwO/LDY1US3aoPbe2W2rIDgd1xtY7DpmTYHsCJ/YH+VDgmmsfLjl3Hq+y1IiCBCu
OwhQP5zFmhGNlO1E14bab9Y9tsX5/CzKtcY/vOa0Iqn4r7dyKMqsoquKicOxSme/
-----END CERTIFICATE-----
